; Function Attrs: mustprogress uwtable
define hidden void @_ZNK8facebook6hermes7tracing10SynthTrace6Record6toJSONERN6hermes11JSONEmitterE(ptr noundef nonnull align 8 dereferenceable(16) %this, ptr noundef nonnull align 8 dereferenceable(72) %json) local_unnamed_addr #1 align 2 {
entry:
  tail call void @_ZN6hermes11JSONEmitter8openDictEv(ptr noundef nonnull align 8 dereferenceable(72) %json)
  %vtable = load ptr, ptr %this, align 8
  %vfn = getelementptr inbounds i8, ptr %vtable, i64 48
  %0 = load ptr, ptr %vfn, align 8
  tail call void %0(ptr noundef nonnull align 8 dereferenceable(16) %this, ptr noundef nonnull align 8 dereferenceable(72) %json)
  tail call void @_ZN6hermes11JSONEmitter9closeDictEv(ptr noundef nonnull align 8 dereferenceable(72) %json)
  ret void
}